; Function Attrs: mustprogress nofree norecurse nosync nounwind willreturn memory(none) uwtable
define dso_local noundef zeroext i1 @_ZN5clang11ASTNodeKind8isBaseOfENS0_10NodeKindIdES1_(i32 noundef %0, i32 noundef %1) local_unnamed_addr #1 align 2 {
  %3 = icmp eq i32 %0, 0
  %4 = icmp eq i32 %1, 0
  %or.cond = or i1 %3, %4
  br i1 %or.cond, label %12, label %.preheader

.preheader:                                       ; preds = %2
  %.not = icmp eq i32 %1, %0
  br i1 %.not, label %._crit_edge, label %.lr.ph

.lr.ph:                                           ; preds = %.preheader, %.lr.ph
  %.011 = phi i32 [ %7, %.lr.ph ], [ %1, %.preheader ]
  %5 = zext i32 %.011 to i64
  %6 = getelementptr inbounds [1018 x %"struct.clang::ASTNodeKind::KindInfo"], ptr @_ZN5clang11ASTNodeKind11AllKindInfoE, i64 0, i64 %5
  %7 = load i32, ptr %6, align 16
  %8 = icmp ne i32 %7, %0
  %9 = icmp ne i32 %7, 0
  %10 = and i1 %8, %9
  br i1 %10, label %.lr.ph, label %._crit_edge, !llvm.loop !4

._crit_edge:                                      ; preds = %.lr.ph, %.preheader
  %.0.lcssa = phi i32 [ %0, %.preheader ], [ %7, %.lr.ph ]
  %11 = icmp eq i32 %.0.lcssa, %0
  br label %12

12:                                               ; preds = %2, %._crit_edge
  %.09 = phi i1 [ %11, %._crit_edge ], [ false, %2 ]
  ret i1 %.09
}